target datalayout = "e-m:e-p270:32:32-p271:32:32-p272:64:64-i64:64-i128:128-f80:128-n8:16:32:64-S128"
target triple = "x86_64-unknown-linux-gnu"

%struct.grpc_channel_filter = type { ptr, ptr, ptr, ptr, i64, ptr, ptr, ptr, i64, ptr, ptr, ptr, ptr, ptr }
%"class.grpc_core::SourceLocation" = type <{ ptr, i32, [4 x i8] }>
%"class.grpc_core::CoreConfiguration::Builder" = type { %"class.grpc_core::ChannelArgsPreconditioning::Builder", [8 x i8], %"class.grpc_core::ChannelInit::Builder", %"class.grpc_core::HandshakerRegistry::Builder", %"class.grpc_core::ChannelCredsRegistry<>::Builder", %"class.grpc_core::ServiceConfigParser::Builder", %"class.grpc_core::ResolverRegistry::Builder", %"class.grpc_core::LoadBalancingPolicyRegistry::Builder", %"class.grpc_core::ProxyMapperRegistry::Builder", %"class.grpc_core::CertificateProviderRegistry::Builder" }
%"class.grpc_core::ChannelArgsPreconditioning::Builder" = type { %"class.std::vector.0" }
%"class.std::vector.0" = type { %"struct.std::_Vector_base.1" }
%"struct.std::_Vector_base.1" = type { %"struct.std::_Vector_base<std::function<grpc_core::ChannelArgs (grpc_core::ChannelArgs)>, std::allocator<std::function<grpc_core::ChannelArgs (grpc_core::ChannelArgs)>>>::_Vector_impl" }
%"struct.std::_Vector_base<std::function<grpc_core::ChannelArgs (grpc_core::ChannelArgs)>, std::allocator<std::function<grpc_core::ChannelArgs (grpc_core::ChannelArgs)>>>::_Vector_impl" = type { %"struct.std::_Vector_base<std::function<grpc_core::ChannelArgs (grpc_core::ChannelArgs)>, std::allocator<std::function<grpc_core::ChannelArgs (grpc_core::ChannelArgs)>>>::_Vector_impl_data" }
%"struct.std::_Vector_base<std::function<grpc_core::ChannelArgs (grpc_core::ChannelArgs)>, std::allocator<std::function<grpc_core::ChannelArgs (grpc_core::ChannelArgs)>>>::_Vector_impl_data" = type { ptr, ptr, ptr }
%"class.grpc_core::ChannelInit::Builder" = type { [6 x %"class.std::vector"], [6 x [2 x %"class.absl::lts_20230802::AnyInvocable"]] }
%"class.std::vector" = type { %"struct.std::_Vector_base" }
%"struct.std::_Vector_base" = type { %"struct.std::_Vector_base<std::unique_ptr<grpc_core::ChannelInit::FilterRegistration>, std::allocator<std::unique_ptr<grpc_core::ChannelInit::FilterRegistration>>>::_Vector_impl" }
%"struct.std::_Vector_base<std::unique_ptr<grpc_core::ChannelInit::FilterRegistration>, std::allocator<std::unique_ptr<grpc_core::ChannelInit::FilterRegistration>>>::_Vector_impl" = type { %"struct.std::_Vector_base<std::unique_ptr<grpc_core::ChannelInit::FilterRegistration>, std::allocator<std::unique_ptr<grpc_core::ChannelInit::FilterRegistration>>>::_Vector_impl_data" }
%"struct.std::_Vector_base<std::unique_ptr<grpc_core::ChannelInit::FilterRegistration>, std::allocator<std::unique_ptr<grpc_core::ChannelInit::FilterRegistration>>>::_Vector_impl_data" = type { ptr, ptr, ptr }
%"class.absl::lts_20230802::AnyInvocable" = type { %"class.absl::lts_20230802::internal_any_invocable::Impl" }
%"class.absl::lts_20230802::internal_any_invocable::Impl" = type { %"class.absl::lts_20230802::internal_any_invocable::CoreImpl" }
%"class.absl::lts_20230802::internal_any_invocable::CoreImpl" = type { %"union.absl::lts_20230802::internal_any_invocable::TypeErasedState", ptr, ptr }
%"union.absl::lts_20230802::internal_any_invocable::TypeErasedState" = type { %struct.anon }
%struct.anon = type { ptr, i64 }
%"class.grpc_core::HandshakerRegistry::Builder" = type { [2 x %"class.std::vector.5"] }
%"class.std::vector.5" = type { %"struct.std::_Vector_base.6" }
%"struct.std::_Vector_base.6" = type { %"struct.std::_Vector_base<std::unique_ptr<grpc_core::HandshakerFactory>, std::allocator<std::unique_ptr<grpc_core::HandshakerFactory>>>::_Vector_impl" }
%"struct.std::_Vector_base<std::unique_ptr<grpc_core::HandshakerFactory>, std::allocator<std::unique_ptr<grpc_core::HandshakerFactory>>>::_Vector_impl" = type { %"struct.std::_Vector_base<std::unique_ptr<grpc_core::HandshakerFactory>, std::allocator<std::unique_ptr<grpc_core::HandshakerFactory>>>::_Vector_impl_data" }
%"struct.std::_Vector_base<std::unique_ptr<grpc_core::HandshakerFactory>, std::allocator<std::unique_ptr<grpc_core::HandshakerFactory>>>::_Vector_impl_data" = type { ptr, ptr, ptr }
%"class.grpc_core::ChannelCredsRegistry<>::Builder" = type { %"class.std::map" }
%"class.std::map" = type { %"class.std::_Rb_tree" }
%"class.std::_Rb_tree" = type { %"struct.std::_Rb_tree<std::basic_string_view<char>, std::pair<const std::basic_string_view<char>, std::unique_ptr<grpc_core::ChannelCredsFactory<grpc_channel_credentials>>>, std::_Select1st<std::pair<const std::basic_string_view<char>, std::unique_ptr<grpc_core::ChannelCredsFactory<grpc_channel_credentials>>>>, std::less<std::basic_string_view<char>>>::_Rb_tree_impl" }
%"struct.std::_Rb_tree<std::basic_string_view<char>, std::pair<const std::basic_string_view<char>, std::unique_ptr<grpc_core::ChannelCredsFactory<grpc_channel_credentials>>>, std::_Select1st<std::pair<const std::basic_string_view<char>, std::unique_ptr<grpc_core::ChannelCredsFactory<grpc_channel_credentials>>>>, std::less<std::basic_string_view<char>>>::_Rb_tree_impl" = type { %"struct.std::_Rb_tree_key_compare", %"struct.std::_Rb_tree_header" }
%"struct.std::_Rb_tree_key_compare" = type { %"struct.std::less" }
%"struct.std::less" = type { i8 }
%"struct.std::_Rb_tree_header" = type { %"struct.std::_Rb_tree_node_base", i64 }
%"struct.std::_Rb_tree_node_base" = type { i32, ptr, ptr, ptr }
%"class.grpc_core::ServiceConfigParser::Builder" = type { %"class.std::vector.13" }
%"class.std::vector.13" = type { %"struct.std::_Vector_base.14" }
%"struct.std::_Vector_base.14" = type { %"struct.std::_Vector_base<std::unique_ptr<grpc_core::ServiceConfigParser::Parser>, std::allocator<std::unique_ptr<grpc_core::ServiceConfigParser::Parser>>>::_Vector_impl" }
%"struct.std::_Vector_base<std::unique_ptr<grpc_core::ServiceConfigParser::Parser>, std::allocator<std::unique_ptr<grpc_core::ServiceConfigParser::Parser>>>::_Vector_impl" = type { %"struct.std::_Vector_base<std::unique_ptr<grpc_core::ServiceConfigParser::Parser>, std::allocator<std::unique_ptr<grpc_core::ServiceConfigParser::Parser>>>::_Vector_impl_data" }
%"struct.std::_Vector_base<std::unique_ptr<grpc_core::ServiceConfigParser::Parser>, std::allocator<std::unique_ptr<grpc_core::ServiceConfigParser::Parser>>>::_Vector_impl_data" = type { ptr, ptr, ptr }
%"class.grpc_core::ResolverRegistry::Builder" = type { %"struct.grpc_core::ResolverRegistry::State" }
%"struct.grpc_core::ResolverRegistry::State" = type { %"class.std::map.18", %"class.std::__cxx11::basic_string" }
%"class.std::map.18" = type { %"class.std::_Rb_tree.19" }
%"class.std::_Rb_tree.19" = type { %"struct.std::_Rb_tree<std::basic_string_view<char>, std::pair<const std::basic_string_view<char>, std::unique_ptr<grpc_core::ResolverFactory>>, std::_Select1st<std::pair<const std::basic_string_view<char>, std::unique_ptr<grpc_core::ResolverFactory>>>, std::less<std::basic_string_view<char>>>::_Rb_tree_impl" }
%"struct.std::_Rb_tree<std::basic_string_view<char>, std::pair<const std::basic_string_view<char>, std::unique_ptr<grpc_core::ResolverFactory>>, std::_Select1st<std::pair<const std::basic_string_view<char>, std::unique_ptr<grpc_core::ResolverFactory>>>, std::less<std::basic_string_view<char>>>::_Rb_tree_impl" = type { %"struct.std::_Rb_tree_key_compare", %"struct.std::_Rb_tree_header" }
%"class.std::__cxx11::basic_string" = type { %"struct.std::__cxx11::basic_string<char>::_Alloc_hider", i64, %union.anon }
%"struct.std::__cxx11::basic_string<char>::_Alloc_hider" = type { ptr }
%union.anon = type { i64, [8 x i8] }
%"class.grpc_core::LoadBalancingPolicyRegistry::Builder" = type { %"class.std::map.26" }
%"class.std::map.26" = type { %"class.std::_Rb_tree.27" }
%"class.std::_Rb_tree.27" = type { %"struct.std::_Rb_tree<std::basic_string_view<char>, std::pair<const std::basic_string_view<char>, std::unique_ptr<grpc_core::LoadBalancingPolicyFactory>>, std::_Select1st<std::pair<const std::basic_string_view<char>, std::unique_ptr<grpc_core::LoadBalancingPolicyFactory>>>, std::less<std::basic_string_view<char>>>::_Rb_tree_impl" }
%"struct.std::_Rb_tree<std::basic_string_view<char>, std::pair<const std::basic_string_view<char>, std::unique_ptr<grpc_core::LoadBalancingPolicyFactory>>, std::_Select1st<std::pair<const std::basic_string_view<char>, std::unique_ptr<grpc_core::LoadBalancingPolicyFactory>>>, std::less<std::basic_string_view<char>>>::_Rb_tree_impl" = type { %"struct.std::_Rb_tree_key_compare", %"struct.std::_Rb_tree_header" }
%"class.grpc_core::ProxyMapperRegistry::Builder" = type { %"class.std::vector.31" }
%"class.std::vector.31" = type { %"struct.std::_Vector_base.32" }
%"struct.std::_Vector_base.32" = type { %"struct.std::_Vector_base<std::unique_ptr<grpc_core::ProxyMapperInterface>, std::allocator<std::unique_ptr<grpc_core::ProxyMapperInterface>>>::_Vector_impl" }
%"struct.std::_Vector_base<std::unique_ptr<grpc_core::ProxyMapperInterface>, std::allocator<std::unique_ptr<grpc_core::ProxyMapperInterface>>>::_Vector_impl" = type { %"struct.std::_Vector_base<std::unique_ptr<grpc_core::ProxyMapperInterface>, std::allocator<std::unique_ptr<grpc_core::ProxyMapperInterface>>>::_Vector_impl_data" }
%"struct.std::_Vector_base<std::unique_ptr<grpc_core::ProxyMapperInterface>, std::allocator<std::unique_ptr<grpc_core::ProxyMapperInterface>>>::_Vector_impl_data" = type { ptr, ptr, ptr }
%"class.grpc_core::CertificateProviderRegistry::Builder" = type { %"class.std::map.36" }
%"class.std::map.36" = type { %"class.std::_Rb_tree.37" }
%"class.std::_Rb_tree.37" = type { %"struct.std::_Rb_tree<std::basic_string_view<char>, std::pair<const std::basic_string_view<char>, std::unique_ptr<grpc_core::CertificateProviderFactory>>, std::_Select1st<std::pair<const std::basic_string_view<char>, std::unique_ptr<grpc_core::CertificateProviderFactory>>>, std::less<std::basic_string_view<char>>>::_Rb_tree_impl" }
%"struct.std::_Rb_tree<std::basic_string_view<char>, std::pair<const std::basic_string_view<char>, std::unique_ptr<grpc_core::CertificateProviderFactory>>, std::_Select1st<std::pair<const std::basic_string_view<char>, std::unique_ptr<grpc_core::CertificateProviderFactory>>>, std::less<std::basic_string_view<char>>>::_Rb_tree_impl" = type { %"struct.std::_Rb_tree_key_compare", %"struct.std::_Rb_tree_header" }
%"class.grpc_core::ChannelInit::FilterRegistration" = type { ptr, %"class.std::vector.41", %"class.std::vector.41", %"class.std::vector.46", i8, i8, [6 x i8], %"class.grpc_core::SourceLocation" }
%"class.std::vector.41" = type { %"struct.std::_Vector_base.42" }
%"struct.std::_Vector_base.42" = type { %"struct.std::_Vector_base<const grpc_channel_filter *, std::allocator<const grpc_channel_filter *>>::_Vector_impl" }
%"struct.std::_Vector_base<const grpc_channel_filter *, std::allocator<const grpc_channel_filter *>>::_Vector_impl" = type { %"struct.std::_Vector_base<const grpc_channel_filter *, std::allocator<const grpc_channel_filter *>>::_Vector_impl_data" }
%"struct.std::_Vector_base<const grpc_channel_filter *, std::allocator<const grpc_channel_filter *>>::_Vector_impl_data" = type { ptr, ptr, ptr }
%"class.std::vector.46" = type { %"struct.std::_Vector_base.47" }
%"struct.std::_Vector_base.47" = type { %"struct.std::_Vector_base<absl::lts_20230802::AnyInvocable<bool (const grpc_core::ChannelArgs &) const>, std::allocator<absl::lts_20230802::AnyInvocable<bool (const grpc_core::ChannelArgs &) const>>>::_Vector_impl" }
%"struct.std::_Vector_base<absl::lts_20230802::AnyInvocable<bool (const grpc_core::ChannelArgs &) const>, std::allocator<absl::lts_20230802::AnyInvocable<bool (const grpc_core::ChannelArgs &) const>>>::_Vector_impl" = type { %"struct.std::_Vector_base<absl::lts_20230802::AnyInvocable<bool (const grpc_core::ChannelArgs &) const>, std::allocator<absl::lts_20230802::AnyInvocable<bool (const grpc_core::ChannelArgs &) const>>>::_Vector_impl_data" }
%"struct.std::_Vector_base<absl::lts_20230802::AnyInvocable<bool (const grpc_core::ChannelArgs &) const>, std::allocator<absl::lts_20230802::AnyInvocable<bool (const grpc_core::ChannelArgs &) const>>>::_Vector_impl_data" = type { ptr, ptr, ptr }

@_ZN9grpc_core16LameClientFilter7kFilterE = external global %struct.grpc_channel_filter, align 8
@.str = private unnamed_addr constant [120 x i8] c"generated/home/dtcxzyw/WorkSpace/Projects/compilers/llvm-opt-benchmark/bench/grpc/grpc/src/core/lib/surface/builtins.cc\00", align 1
@_ZN9grpc_core6Server16kServerTopFilterE = external global %struct.grpc_channel_filter, align 8

; Function Attrs: mustprogress nounwind uwtable
define linkonce_odr noundef nonnull align 8 dereferenceable(104) ptr @_ZN9grpc_core11ChannelInit18FilterRegistration9BeforeAllEv(ptr noundef nonnull align 8 dereferenceable(104) %this) #5 comdat align 2 {
entry:
  %this.addr = alloca ptr, align 8
  store ptr %this, ptr %this.addr, align 8
  %this1 = load ptr, ptr %this.addr, align 8
  %before_all_ = getelementptr inbounds %"class.grpc_core::ChannelInit::FilterRegistration", ptr %this1, i32 0, i32 5
  store i8 1, ptr %before_all_, align 1
  ret ptr %this1
}

; Function Attrs: mustprogress nounwind uwtable
define linkonce_odr noundef nonnull align 8 dereferenceable(104) ptr @_ZN9grpc_core11ChannelInit18FilterRegistration8TerminalEv(ptr noundef nonnull align 8 dereferenceable(104) %this) #5 comdat align 2 {
entry:
  %this.addr = alloca ptr, align 8
  store ptr %this, ptr %this.addr, align 8
  %this1 = load ptr, ptr %this.addr, align 8
  %terminal_ = getelementptr inbounds %"class.grpc_core::ChannelInit::FilterRegistration", ptr %this1, i32 0, i32 4
  store i8 1, ptr %terminal_, align 8
  ret ptr %this1
}

; Function Attrs: mustprogress nounwind uwtable
define linkonce_odr void @_ZN9grpc_core14SourceLocationC2EPKci(ptr noundef nonnull align 8 dereferenceable(12) %this, ptr noundef %file, i32 noundef %line) unnamed_addr #5 comdat align 2 {
entry:
  %this.addr = alloca ptr, align 8
  %file.addr = alloca ptr, align 8
  %line.addr = alloca i32, align 4
  store ptr %this, ptr %this.addr, align 8
  store ptr %file, ptr %file.addr, align 8
  store i32 %line, ptr %line.addr, align 4
  %this1 = load ptr, ptr %this.addr, align 8
  %file_ = getelementptr inbounds %"class.grpc_core::SourceLocation", ptr %this1, i32 0, i32 0
  %0 = load ptr, ptr %file.addr, align 8
  store ptr %0, ptr %file_, align 8
  %line_ = getelementptr inbounds %"class.grpc_core::SourceLocation", ptr %this1, i32 0, i32 1
  %1 = load i32, ptr %line.addr, align 4
  store i32 %1, ptr %line_, align 8
  ret void
}

; Function Attrs: mustprogress nounwind uwtable
define linkonce_odr noundef ptr @_ZN9grpc_core17CoreConfiguration7Builder12channel_initEv(ptr noundef nonnull align 16 dereferenceable(880) %this) #5 comdat align 2 {
entry:
  %this.addr = alloca ptr, align 8
  store ptr %this, ptr %this.addr, align 8
  %this1 = load ptr, ptr %this.addr, align 8
  %channel_init_ = getelementptr inbounds %"class.grpc_core::CoreConfiguration::Builder", ptr %this1, i32 0, i32 2
  ret ptr %channel_init_
}

; Function Attrs: mustprogress uwtable
define void @_ZN9grpc_core16RegisterBuiltinsEPNS_17CoreConfiguration7BuilderE(ptr noundef %builder) #4 {
entry:
  %builder.addr = alloca ptr, align 8
  %agg.tmp = alloca %"class.grpc_core::SourceLocation", align 8
  %agg.tmp4 = alloca %"class.grpc_core::SourceLocation", align 8
  store ptr %builder, ptr %builder.addr, align 8
  %0 = load ptr, ptr %builder.addr, align 8
  call void @_ZN9grpc_core30RegisterServerCallTracerFilterEPNS_17CoreConfiguration7BuilderE(ptr noundef %0)
  %1 = load ptr, ptr %builder.addr, align 8
  %call = call noundef ptr @_ZN9grpc_core17CoreConfiguration7Builder12channel_initEv(ptr noundef nonnull align 16 dereferenceable(880) %1)
  call void @_ZN9grpc_core14SourceLocationC2EPKci(ptr noundef nonnull align 8 dereferenceable(12) %agg.tmp, ptr noundef @.str, i32 noundef 29)
  %2 = getelementptr inbounds { ptr, i32 }, ptr %agg.tmp, i32 0, i32 0
  %3 = load ptr, ptr %2, align 8
  %4 = getelementptr inbounds { ptr, i32 }, ptr %agg.tmp, i32 0, i32 1
  %5 = load i32, ptr %4, align 8
  %call1 = call noundef nonnull align 8 dereferenceable(104) ptr @_ZN9grpc_core11ChannelInit7Builder14RegisterFilterE23grpc_channel_stack_typePK19grpc_channel_filterNS_14SourceLocationE(ptr noundef nonnull align 16 dereferenceable(528) %call, i32 noundef 3, ptr noundef @_ZN9grpc_core16LameClientFilter7kFilterE, ptr %3, i32 %5)
  %call2 = call noundef nonnull align 8 dereferenceable(104) ptr @_ZN9grpc_core11ChannelInit18FilterRegistration8TerminalEv(ptr noundef nonnull align 8 dereferenceable(104) %call1)
  %6 = load ptr, ptr %builder.addr, align 8
  %call3 = call noundef ptr @_ZN9grpc_core17CoreConfiguration7Builder12channel_initEv(ptr noundef nonnull align 16 dereferenceable(880) %6)
  call void @_ZN9grpc_core14SourceLocationC2EPKci(ptr noundef nonnull align 8 dereferenceable(12) %agg.tmp4, ptr noundef @.str, i32 noundef 32)
  %7 = getelementptr inbounds { ptr, i32 }, ptr %agg.tmp4, i32 0, i32 0
  %8 = load ptr, ptr %7, align 8
  %9 = getelementptr inbounds { ptr, i32 }, ptr %agg.tmp4, i32 0, i32 1
  %10 = load i32, ptr %9, align 8
  %call5 = call noundef nonnull align 8 dereferenceable(104) ptr @_ZN9grpc_core11ChannelInit7Builder14RegisterFilterE23grpc_channel_stack_typePK19grpc_channel_filterNS_14SourceLocationE(ptr noundef nonnull align 16 dereferenceable(528) %call3, i32 noundef 5, ptr noundef @_ZN9grpc_core6Server16kServerTopFilterE, ptr %8, i32 %10)
  %call6 = call noundef nonnull align 8 dereferenceable(104) ptr @_ZN9grpc_core11ChannelInit18FilterRegistration9BeforeAllEv(ptr noundef nonnull align 8 dereferenceable(104) %call5)
  ret void
}