; Function Attrs: mustprogress uwtable
define void @_ZN9grpc_core16RegisterBuiltinsEPNS_17CoreConfiguration7BuilderE(ptr noundef %builder) local_unnamed_addr #3 {
entry:
  tail call void @_ZN9grpc_core30RegisterServerCallTracerFilterEPNS_17CoreConfiguration7BuilderE(ptr noundef %builder)
  %channel_init_.i = getelementptr inbounds i8, ptr %builder, i64 32
  %call1 = tail call noundef nonnull align 8 dereferenceable(104) ptr @_ZN9grpc_core11ChannelInit7Builder14RegisterFilterE23grpc_channel_stack_typePK19grpc_channel_filterNS_14SourceLocationE(ptr noundef nonnull align 16 dereferenceable(528) %channel_init_.i, i32 noundef 3, ptr noundef nonnull @_ZN9grpc_core16LameClientFilter7kFilterE, ptr nonnull @.str, i32 29)
  %terminal_.i = getelementptr inbounds i8, ptr %call1, i64 80
  store i8 1, ptr %terminal_.i, align 8
  %call5 = tail call noundef nonnull align 8 dereferenceable(104) ptr @_ZN9grpc_core11ChannelInit7Builder14RegisterFilterE23grpc_channel_stack_typePK19grpc_channel_filterNS_14SourceLocationE(ptr noundef nonnull align 16 dereferenceable(528) %channel_init_.i, i32 noundef 5, ptr noundef nonnull @_ZN9grpc_core6Server16kServerTopFilterE, ptr nonnull @.str, i32 32)
  %before_all_.i = getelementptr inbounds i8, ptr %call5, i64 81
  store i8 1, ptr %before_all_.i, align 1
  ret void
}